target datalayout = "e-m:e-p270:32:32-p271:32:32-p272:64:64-i64:64-i128:128-f80:128-n8:16:32:64-S128"
target triple = "x86_64-pc-linux-gnu"

%struct.uv__io_s = type { ptr, [2 x ptr], [2 x ptr], i32, i32, i32 }
%struct.uv_udp_s = type { ptr, ptr, i32, ptr, [2 x ptr], %union.anon.1, ptr, i32, i64, i64, ptr, ptr, %struct.uv__io_s, [2 x ptr], [2 x ptr] }
%union.anon.1 = type { [4 x ptr] }
%struct.sockaddr_storage = type { i16, [118 x i8], i64 }

; Function Attrs: nounwind uwtable
define dso_local i32 @uv__udp_is_connected(ptr noundef %0) #0 {
  %2 = alloca i32, align 4
  %3 = alloca ptr, align 8
  %4 = alloca %struct.sockaddr_storage, align 8
  %5 = alloca i32, align 4
  %6 = alloca i32, align 4
  store ptr %0, ptr %3, align 8, !tbaa !53
  call void @llvm.lifetime.start.p0(i64 128, ptr %4) #13
  call void @llvm.lifetime.start.p0(i64 4, ptr %5) #13
  %7 = load ptr, ptr %3, align 8, !tbaa !53
  %8 = getelementptr inbounds nuw %struct.uv_udp_s, ptr %7, i32 0, i32 2
  %9 = load i32, ptr %8, align 8, !tbaa !57
  %10 = icmp ne i32 %9, 15
  br i1 %10, label %11, label %12

11:                                               ; preds = %1
  store i32 0, ptr %2, align 4
  store i32 1, ptr %6, align 4
  br label %21

12:                                               ; preds = %1
  store i32 128, ptr %5, align 4, !tbaa !15
  %13 = load ptr, ptr %3, align 8, !tbaa !53
  %14 = call i32 @uv_udp_getpeername(ptr noundef %13, ptr noundef %4, ptr noundef %5)
  %15 = icmp ne i32 %14, 0
  br i1 %15, label %16, label %17

16:                                               ; preds = %12
  store i32 0, ptr %2, align 4
  store i32 1, ptr %6, align 4
  br label %21

17:                                               ; preds = %12
  %18 = load i32, ptr %5, align 4, !tbaa !15
  %19 = icmp sgt i32 %18, 0
  %20 = zext i1 %19 to i32
  store i32 %20, ptr %2, align 4
  store i32 1, ptr %6, align 4
  br label %21

21:                                               ; preds = %17, %16, %11
  call void @llvm.lifetime.end.p0(i64 4, ptr %5) #13
  call void @llvm.lifetime.end.p0(i64 128, ptr %4) #13
  %22 = load i32, ptr %2, align 4
  ret i32 %22
}