; Function Attrs: nounwind uwtable
define dso_local range(i32 0, 2) i32 @uv__udp_is_connected(ptr noundef %0) local_unnamed_addr #0 {
  %2 = alloca %struct.sockaddr_storage, align 8
  %3 = alloca i32, align 4
  call void @llvm.lifetime.start.p0(i64 128, ptr nonnull %2) #26
  call void @llvm.lifetime.start.p0(i64 4, ptr nonnull %3) #26
  %4 = getelementptr inbounds nuw i8, ptr %0, i64 16
  %5 = load i32, ptr %4, align 8, !tbaa !38
  %.not = icmp eq i32 %5, 15
  br i1 %.not, label %6, label %12

6:                                                ; preds = %1
  store i32 128, ptr %3, align 4, !tbaa !10
  %7 = call i32 @uv_udp_getpeername(ptr noundef nonnull %0, ptr noundef nonnull %2, ptr noundef nonnull %3) #26
  %.not2 = icmp eq i32 %7, 0
  br i1 %.not2, label %8, label %12

8:                                                ; preds = %6
  %9 = load i32, ptr %3, align 4, !tbaa !10
  %10 = icmp sgt i32 %9, 0
  %11 = zext i1 %10 to i32
  br label %12

12:                                               ; preds = %6, %1, %8
  %.0 = phi i32 [ %11, %8 ], [ 0, %1 ], [ 0, %6 ]
  call void @llvm.lifetime.end.p0(i64 4, ptr nonnull %3) #26
  call void @llvm.lifetime.end.p0(i64 128, ptr nonnull %2) #26
  ret i32 %.0
}